target datalayout = "e-m:e-p270:32:32-p271:32:32-p272:64:64-i64:64-i128:128-f80:128-n8:16:32:64-S128"
target triple = "x86_64-unknown-linux-gnu"

%"class.QuantLib::Payoff" = type { ptr }
%"class.QuantLib::StrikedTypePayoff" = type { %"class.QuantLib::TypePayoff.base", double }
%"class.QuantLib::TypePayoff.base" = type <{ %"class.QuantLib::Payoff", i32 }>
%"class.QuantLib::SuperSharePayoff" = type { %"class.QuantLib::StrikedTypePayoff", double, double }

; Function Attrs: mustprogress nounwind uwtable
define noundef double @_ZNK8QuantLib16SuperSharePayoffclEd(ptr noundef nonnull align 8 dereferenceable(40) %this, double noundef %price) unnamed_addr #6 align 2 {
entry:
  %this.addr = alloca ptr, align 8
  %price.addr = alloca double, align 8
  store ptr %this, ptr %this.addr, align 8, !tbaa !3
  store double %price, ptr %price.addr, align 8, !tbaa !9
  %this1 = load ptr, ptr %this.addr, align 8
  %0 = load double, ptr %price.addr, align 8, !tbaa !9
  %strike_ = getelementptr inbounds nuw %"class.QuantLib::StrikedTypePayoff", ptr %this1, i32 0, i32 1
  %1 = load double, ptr %strike_, align 8, !tbaa !16
  %cmp = fcmp oge double %0, %1
  br i1 %cmp, label %land.lhs.true, label %cond.false

land.lhs.true:                                    ; preds = %entry
  %2 = load double, ptr %price.addr, align 8, !tbaa !9
  %secondStrike_ = getelementptr inbounds nuw %"class.QuantLib::SuperSharePayoff", ptr %this1, i32 0, i32 1
  %3 = load double, ptr %secondStrike_, align 8, !tbaa !24
  %cmp2 = fcmp olt double %2, %3
  br i1 %cmp2, label %cond.true, label %cond.false

cond.true:                                        ; preds = %land.lhs.true
  %cashPayoff_ = getelementptr inbounds nuw %"class.QuantLib::SuperSharePayoff", ptr %this1, i32 0, i32 2
  %4 = load double, ptr %cashPayoff_, align 8, !tbaa !26
  br label %cond.end

cond.false:                                       ; preds = %land.lhs.true, %entry
  br label %cond.end

cond.end:                                         ; preds = %cond.false, %cond.true
  %cond = phi double [ %4, %cond.true ], [ 0.000000e+00, %cond.false ]
  ret double %cond
}