; Function Attrs: mustprogress nofree norecurse nosync nounwind willreturn memory(argmem: read) uwtable
define noundef double @_ZNK8QuantLib16SuperSharePayoffclEd(ptr nocapture noundef nonnull readonly align 8 dereferenceable(40) %this, double noundef %price) unnamed_addr #13 align 2 {
entry:
  %strike_ = getelementptr inbounds nuw i8, ptr %this, i64 16
  %0 = load double, ptr %strike_, align 8, !tbaa !47
  %cmp = fcmp oge double %price, %0
  %secondStrike_ = getelementptr inbounds nuw i8, ptr %this, i64 24
  %1 = load double, ptr %secondStrike_, align 8
  %cmp2 = fcmp olt double %price, %1
  %or.cond = select i1 %cmp, i1 %cmp2, i1 false
  %cashPayoff_ = getelementptr inbounds nuw i8, ptr %this, i64 32
  %2 = load double, ptr %cashPayoff_, align 8
  %cond = select i1 %or.cond, double %2, double 0.000000e+00
  ret double %cond
}